target datalayout = "e-m:e-p270:32:32-p271:32:32-p272:64:64-i64:64-i128:128-f80:128-n8:16:32:64-S128"
target triple = "x86_64-unknown-linux-gnu"

%"class.cvc5::internal::theory::EqEngineManagerCentral::CentralNotifyClass" = type { %"class.cvc5::internal::theory::eq::EqualityEngineNotify", ptr, %"class.std::vector", %"class.std::vector", %"class.std::vector", ptr, ptr }
%"class.cvc5::internal::theory::eq::EqualityEngineNotify" = type { ptr }
%"class.std::vector" = type { %"struct.std::_Vector_base" }
%"struct.std::_Vector_base" = type { %"struct.std::_Vector_base<cvc5::internal::theory::eq::EqualityEngineNotify *, std::allocator<cvc5::internal::theory::eq::EqualityEngineNotify *>>::_Vector_impl" }
%"struct.std::_Vector_base<cvc5::internal::theory::eq::EqualityEngineNotify *, std::allocator<cvc5::internal::theory::eq::EqualityEngineNotify *>>::_Vector_impl" = type { %"struct.std::_Vector_base<cvc5::internal::theory::eq::EqualityEngineNotify *, std::allocator<cvc5::internal::theory::eq::EqualityEngineNotify *>>::_Vector_impl_data" }
%"struct.std::_Vector_base<cvc5::internal::theory::eq::EqualityEngineNotify *, std::allocator<cvc5::internal::theory::eq::EqualityEngineNotify *>>::_Vector_impl_data" = type { ptr, ptr, ptr }

; Function Attrs: mustprogress nounwind uwtable
define linkonce_odr hidden void @_ZNSt15__new_allocatorIPN4cvc58internal6theory2eq20EqualityEngineNotifyEEC2Ev(ptr noundef nonnull align 1 dereferenceable(1) %this) unnamed_addr #4 comdat align 2 {
entry:
  %this.addr = alloca ptr, align 8
  store ptr %this, ptr %this.addr, align 8
  ret void
}

; Function Attrs: mustprogress nounwind uwtable
define linkonce_odr hidden void @_ZNSt12_Vector_baseIPN4cvc58internal6theory2eq20EqualityEngineNotifyESaIS5_EE17_Vector_impl_dataC2Ev(ptr noundef nonnull align 8 dereferenceable(24) %this) unnamed_addr #4 comdat align 2 {
entry:
  %this.addr = alloca ptr, align 8
  store ptr %this, ptr %this.addr, align 8
  %this1 = load ptr, ptr %this.addr, align 8
  %_M_start = getelementptr inbounds %"struct.std::_Vector_base<cvc5::internal::theory::eq::EqualityEngineNotify *, std::allocator<cvc5::internal::theory::eq::EqualityEngineNotify *>>::_Vector_impl_data", ptr %this1, i32 0, i32 0
  store ptr null, ptr %_M_start, align 8
  %_M_finish = getelementptr inbounds %"struct.std::_Vector_base<cvc5::internal::theory::eq::EqualityEngineNotify *, std::allocator<cvc5::internal::theory::eq::EqualityEngineNotify *>>::_Vector_impl_data", ptr %this1, i32 0, i32 1
  store ptr null, ptr %_M_finish, align 8
  %_M_end_of_storage = getelementptr inbounds %"struct.std::_Vector_base<cvc5::internal::theory::eq::EqualityEngineNotify *, std::allocator<cvc5::internal::theory::eq::EqualityEngineNotify *>>::_Vector_impl_data", ptr %this1, i32 0, i32 2
  store ptr null, ptr %_M_end_of_storage, align 8
  ret void
}

; Function Attrs: mustprogress nounwind uwtable
define linkonce_odr hidden void @_ZNSaIPN4cvc58internal6theory2eq20EqualityEngineNotifyEEC2Ev(ptr noundef nonnull align 1 dereferenceable(1) %this) unnamed_addr #4 comdat align 2 {
entry:
  %this.addr = alloca ptr, align 8
  store ptr %this, ptr %this.addr, align 8
  %this1 = load ptr, ptr %this.addr, align 8
  call void @_ZNSt15__new_allocatorIPN4cvc58internal6theory2eq20EqualityEngineNotifyEEC2Ev(ptr noundef nonnull align 1 dereferenceable(1) %this1) #3
  ret void
}

; Function Attrs: mustprogress nounwind uwtable
define linkonce_odr hidden void @_ZNSt12_Vector_baseIPN4cvc58internal6theory2eq20EqualityEngineNotifyESaIS5_EE12_Vector_implC2Ev(ptr noundef nonnull align 8 dereferenceable(24) %this) unnamed_addr #4 comdat align 2 {
entry:
  %this.addr = alloca ptr, align 8
  store ptr %this, ptr %this.addr, align 8
  %this1 = load ptr, ptr %this.addr, align 8
  call void @_ZNSaIPN4cvc58internal6theory2eq20EqualityEngineNotifyEEC2Ev(ptr noundef nonnull align 1 dereferenceable(1) %this1) #3
  call void @_ZNSt12_Vector_baseIPN4cvc58internal6theory2eq20EqualityEngineNotifyESaIS5_EE17_Vector_impl_dataC2Ev(ptr noundef nonnull align 8 dereferenceable(24) %this1) #3
  ret void
}

; Function Attrs: mustprogress nounwind uwtable
define linkonce_odr hidden void @_ZNSt12_Vector_baseIPN4cvc58internal6theory2eq20EqualityEngineNotifyESaIS5_EEC2Ev(ptr noundef nonnull align 8 dereferenceable(24) %this) unnamed_addr #4 comdat align 2 {
entry:
  %this.addr = alloca ptr, align 8
  store ptr %this, ptr %this.addr, align 8
  %this1 = load ptr, ptr %this.addr, align 8
  %_M_impl = getelementptr inbounds %"struct.std::_Vector_base", ptr %this1, i32 0, i32 0
  call void @_ZNSt12_Vector_baseIPN4cvc58internal6theory2eq20EqualityEngineNotifyESaIS5_EE12_Vector_implC2Ev(ptr noundef nonnull align 8 dereferenceable(24) %_M_impl) #3
  ret void
}

; Function Attrs: mustprogress nounwind uwtable
define linkonce_odr hidden void @_ZNSt6vectorIPN4cvc58internal6theory2eq20EqualityEngineNotifyESaIS5_EEC2Ev(ptr noundef nonnull align 8 dereferenceable(24) %this) unnamed_addr #4 comdat align 2 {
entry:
  %this.addr = alloca ptr, align 8
  store ptr %this, ptr %this.addr, align 8
  %this1 = load ptr, ptr %this.addr, align 8
  call void @_ZNSt12_Vector_baseIPN4cvc58internal6theory2eq20EqualityEngineNotifyESaIS5_EEC2Ev(ptr noundef nonnull align 8 dereferenceable(24) %this1) #3
  ret void
}

; Function Attrs: mustprogress nounwind uwtable
define linkonce_odr hidden void @_ZN4cvc58internal6theory2eq20EqualityEngineNotifyC2Ev(ptr noundef nonnull align 8 dereferenceable(8) %this) unnamed_addr #4 comdat align 2 {
entry:
  %this.addr = alloca ptr, align 8
  store ptr %this, ptr %this.addr, align 8
  %this1 = load ptr, ptr %this.addr, align 8
  store ptr getelementptr inbounds ({ [10 x ptr] }, ptr @_ZTVN4cvc58internal6theory2eq20EqualityEngineNotifyE, i32 0, i32 0, i32 2), ptr %this1, align 8
  ret void
}

; Function Attrs: mustprogress nounwind uwtable
define hidden void @_ZN4cvc58internal6theory22EqEngineManagerCentral18CentralNotifyClassC2ERS2_(ptr noundef nonnull align 8 dereferenceable(104) %this, ptr noundef nonnull align 8 dereferenceable(2112) %eemc) unnamed_addr #4 align 2 {
entry:
  %this.addr = alloca ptr, align 8
  %eemc.addr = alloca ptr, align 8
  store ptr %this, ptr %this.addr, align 8
  store ptr %eemc, ptr %eemc.addr, align 8
  %this1 = load ptr, ptr %this.addr, align 8
  call void @_ZN4cvc58internal6theory2eq20EqualityEngineNotifyC2Ev(ptr noundef nonnull align 8 dereferenceable(8) %this1) #3
  store ptr getelementptr inbounds ({ [10 x ptr] }, ptr @_ZTVN4cvc58internal6theory22EqEngineManagerCentral18CentralNotifyClassE, i32 0, i32 0, i32 2), ptr %this1, align 8
  %d_eemc = getelementptr inbounds %"class.cvc5::internal::theory::EqEngineManagerCentral::CentralNotifyClass", ptr %this1, i32 0, i32 1
  %0 = load ptr, ptr %eemc.addr, align 8
  store ptr %0, ptr %d_eemc, align 8
  %d_newClassNotify = getelementptr inbounds %"class.cvc5::internal::theory::EqEngineManagerCentral::CentralNotifyClass", ptr %this1, i32 0, i32 2
  call void @_ZNSt6vectorIPN4cvc58internal6theory2eq20EqualityEngineNotifyESaIS5_EEC2Ev(ptr noundef nonnull align 8 dereferenceable(24) %d_newClassNotify) #3
  %d_mergeNotify = getelementptr inbounds %"class.cvc5::internal::theory::EqEngineManagerCentral::CentralNotifyClass", ptr %this1, i32 0, i32 3
  call void @_ZNSt6vectorIPN4cvc58internal6theory2eq20EqualityEngineNotifyESaIS5_EEC2Ev(ptr noundef nonnull align 8 dereferenceable(24) %d_mergeNotify) #3
  %d_disequalNotify = getelementptr inbounds %"class.cvc5::internal::theory::EqEngineManagerCentral::CentralNotifyClass", ptr %this1, i32 0, i32 4
  call void @_ZNSt6vectorIPN4cvc58internal6theory2eq20EqualityEngineNotifyESaIS5_EEC2Ev(ptr noundef nonnull align 8 dereferenceable(24) %d_disequalNotify) #3
  %d_mNotify = getelementptr inbounds %"class.cvc5::internal::theory::EqEngineManagerCentral::CentralNotifyClass", ptr %this1, i32 0, i32 5
  store ptr null, ptr %d_mNotify, align 8
  %d_quantEngine = getelementptr inbounds %"class.cvc5::internal::theory::EqEngineManagerCentral::CentralNotifyClass", ptr %this1, i32 0, i32 6
  store ptr null, ptr %d_quantEngine, align 8
  ret void
}