; Function Attrs: mustprogress nofree norecurse nosync nounwind willreturn memory(argmem: write) uwtable
define hidden void @_ZN4cvc58internal6theory22EqEngineManagerCentral18CentralNotifyClassC2ERS2_(ptr nocapture noundef nonnull writeonly align 8 dereferenceable(104) %this, ptr noundef nonnull align 8 dereferenceable(2112) %eemc) unnamed_addr #10 align 2 {
entry:
  store ptr getelementptr inbounds ({ [10 x ptr] }, ptr @_ZTVN4cvc58internal6theory22EqEngineManagerCentral18CentralNotifyClassE, i64 0, i32 0, i64 2), ptr %this, align 8
  %d_eemc = getelementptr inbounds i8, ptr %this, i64 8
  store ptr %eemc, ptr %d_eemc, align 8
  %d_newClassNotify = getelementptr inbounds i8, ptr %this, i64 16
  tail call void @llvm.memset.p0.i64(ptr noundef nonnull align 8 dereferenceable(88) %d_newClassNotify, i8 0, i64 88, i1 false)
  ret void
}